target datalayout = "e-m:e-p270:32:32-p271:32:32-p272:64:64-i64:64-i128:128-f80:128-n8:16:32:64-S128"
target triple = "x86_64-pc-linux-gnu"

%struct.AVRational = type { i32, i32 }
%struct.AVFrame = type { [8 x ptr], [8 x i32], ptr, i32, i32, i32, i32, i32, %struct.AVRational, i64, i64, %struct.AVRational, i32, ptr, i32, i32, [8 x ptr], ptr, i32, ptr, i32, i32, i32, i32, i32, i32, i32, i64, ptr, i32, ptr, ptr, i64, i64, i64, i64, ptr, %struct.AVChannelLayout, i64 }
%struct.AVChannelLayout = type { i32, i32, %union.anon, ptr }
%union.anon = type { i64 }

; Function Attrs: nounwind uwtable
define internal void @get_frame_defaults(ptr noundef %0) #0 {
  %2 = alloca ptr, align 8
  %3 = alloca %struct.AVRational, align 4
  %4 = alloca %struct.AVRational, align 4
  store ptr %0, ptr %2, align 8, !tbaa !4
  %5 = load ptr, ptr %2, align 8, !tbaa !4
  call void @llvm.memset.p0.i64(ptr align 8 %5, i8 0, i64 416, i1 false)
  %6 = load ptr, ptr %2, align 8, !tbaa !4
  %7 = getelementptr inbounds nuw %struct.AVFrame, ptr %6, i32 0, i32 10
  store i64 -9223372036854775808, ptr %7, align 8, !tbaa !9
  %8 = load ptr, ptr %2, align 8, !tbaa !4
  %9 = getelementptr inbounds nuw %struct.AVFrame, ptr %8, i32 0, i32 9
  store i64 -9223372036854775808, ptr %9, align 8, !tbaa !21
  %10 = load ptr, ptr %2, align 8, !tbaa !4
  %11 = getelementptr inbounds nuw %struct.AVFrame, ptr %10, i32 0, i32 27
  store i64 -9223372036854775808, ptr %11, align 8, !tbaa !22
  %12 = load ptr, ptr %2, align 8, !tbaa !4
  %13 = getelementptr inbounds nuw %struct.AVFrame, ptr %12, i32 0, i32 38
  store i64 0, ptr %13, align 8, !tbaa !23
  %14 = load ptr, ptr %2, align 8, !tbaa !4
  %15 = getelementptr inbounds nuw %struct.AVFrame, ptr %14, i32 0, i32 11
  %16 = getelementptr inbounds nuw %struct.AVRational, ptr %3, i32 0, i32 0
  store i32 0, ptr %16, align 4, !tbaa !24
  %17 = getelementptr inbounds nuw %struct.AVRational, ptr %3, i32 0, i32 1
  store i32 1, ptr %17, align 4, !tbaa !25
  call void @llvm.memcpy.p0.p0.i64(ptr align 8 %15, ptr align 4 %3, i64 8, i1 false), !tbaa.struct !26
  %18 = load ptr, ptr %2, align 8, !tbaa !4
  %19 = getelementptr inbounds nuw %struct.AVFrame, ptr %18, i32 0, i32 8
  %20 = getelementptr inbounds nuw %struct.AVRational, ptr %4, i32 0, i32 0
  store i32 0, ptr %20, align 4, !tbaa !24
  %21 = getelementptr inbounds nuw %struct.AVRational, ptr %4, i32 0, i32 1
  store i32 1, ptr %21, align 4, !tbaa !25
  call void @llvm.memcpy.p0.p0.i64(ptr align 4 %19, ptr align 4 %4, i64 8, i1 false), !tbaa.struct !26
  %22 = load ptr, ptr %2, align 8, !tbaa !4
  %23 = getelementptr inbounds nuw %struct.AVFrame, ptr %22, i32 0, i32 6
  store i32 -1, ptr %23, align 4, !tbaa !28
  %24 = load ptr, ptr %2, align 8, !tbaa !4
  %25 = getelementptr inbounds nuw %struct.AVFrame, ptr %24, i32 0, i32 0
  %26 = getelementptr inbounds [8 x ptr], ptr %25, i64 0, i64 0
  %27 = load ptr, ptr %2, align 8, !tbaa !4
  %28 = getelementptr inbounds nuw %struct.AVFrame, ptr %27, i32 0, i32 2
  store ptr %26, ptr %28, align 8, !tbaa !29
  %29 = load ptr, ptr %2, align 8, !tbaa !4
  %30 = getelementptr inbounds nuw %struct.AVFrame, ptr %29, i32 0, i32 23
  store i32 2, ptr %30, align 4, !tbaa !30
  %31 = load ptr, ptr %2, align 8, !tbaa !4
  %32 = getelementptr inbounds nuw %struct.AVFrame, ptr %31, i32 0, i32 24
  store i32 2, ptr %32, align 8, !tbaa !31
  %33 = load ptr, ptr %2, align 8, !tbaa !4
  %34 = getelementptr inbounds nuw %struct.AVFrame, ptr %33, i32 0, i32 25
  store i32 2, ptr %34, align 4, !tbaa !32
  %35 = load ptr, ptr %2, align 8, !tbaa !4
  %36 = getelementptr inbounds nuw %struct.AVFrame, ptr %35, i32 0, i32 22
  store i32 0, ptr %36, align 8, !tbaa !33
  %37 = load ptr, ptr %2, align 8, !tbaa !4
  %38 = getelementptr inbounds nuw %struct.AVFrame, ptr %37, i32 0, i32 26
  store i32 0, ptr %38, align 8, !tbaa !34
  %39 = load ptr, ptr %2, align 8, !tbaa !4
  %40 = getelementptr inbounds nuw %struct.AVFrame, ptr %39, i32 0, i32 21
  store i32 0, ptr %40, align 4, !tbaa !35
  ret void
}

; Function Attrs: nounwind uwtable
define ptr @av_frame_alloc() #0 {
  %1 = alloca ptr, align 8
  %2 = alloca ptr, align 8
  %3 = alloca i32, align 4
  call void @llvm.lifetime.start.p0(i64 8, ptr %2) #7
  %4 = call noalias ptr @av_malloc(i64 noundef 416)
  store ptr %4, ptr %2, align 8, !tbaa !4
  %5 = load ptr, ptr %2, align 8, !tbaa !4
  %6 = icmp ne ptr %5, null
  br i1 %6, label %8, label %7

7:                                                ; preds = %0
  store ptr null, ptr %1, align 8
  store i32 1, ptr %3, align 4
  br label %11

8:                                                ; preds = %0
  %9 = load ptr, ptr %2, align 8, !tbaa !4
  call void @get_frame_defaults(ptr noundef %9)
  %10 = load ptr, ptr %2, align 8, !tbaa !4
  store ptr %10, ptr %1, align 8
  store i32 1, ptr %3, align 4
  br label %11

11:                                               ; preds = %8, %7
  call void @llvm.lifetime.end.p0(i64 8, ptr %2) #7
  %12 = load ptr, ptr %1, align 8
  ret ptr %12
}