; Function Attrs: nounwind uwtable
define ptr @av_frame_alloc() local_unnamed_addr #0 {
  %1 = tail call noalias ptr @av_malloc(i64 noundef 416) #8
  %.not = icmp eq ptr %1, null
  br i1 %.not, label %12, label %2

2:                                                ; preds = %0
  tail call void @llvm.memset.p0.i64(ptr noundef nonnull align 8 dereferenceable(416) %1, i8 0, i64 408, i1 false)
  %3 = getelementptr inbounds nuw i8, ptr %1, i64 144
  store i64 -9223372036854775808, ptr %3, align 8, !tbaa !4
  %4 = getelementptr inbounds nuw i8, ptr %1, i64 136
  store i64 -9223372036854775808, ptr %4, align 8, !tbaa !19
  %5 = getelementptr inbounds nuw i8, ptr %1, i64 304
  store i64 -9223372036854775808, ptr %5, align 8, !tbaa !20
  %6 = getelementptr inbounds nuw i8, ptr %1, i64 408
  store i64 0, ptr %6, align 8, !tbaa !21
  %.sroa.22.0..sroa_idx.i = getelementptr inbounds nuw i8, ptr %1, i64 156
  store i32 1, ptr %.sroa.22.0..sroa_idx.i, align 4, !tbaa !22
  %.sroa.2.0..sroa_idx.i = getelementptr inbounds nuw i8, ptr %1, i64 128
  store i32 1, ptr %.sroa.2.0..sroa_idx.i, align 4, !tbaa !22
  %7 = getelementptr inbounds nuw i8, ptr %1, i64 116
  store i32 -1, ptr %7, align 4, !tbaa !23
  %8 = getelementptr inbounds nuw i8, ptr %1, i64 96
  store ptr %1, ptr %8, align 8, !tbaa !24
  %9 = getelementptr inbounds nuw i8, ptr %1, i64 284
  store i32 2, ptr %9, align 4, !tbaa !25
  %10 = getelementptr inbounds nuw i8, ptr %1, i64 288
  store i32 2, ptr %10, align 8, !tbaa !26
  %11 = getelementptr inbounds nuw i8, ptr %1, i64 292
  store i32 2, ptr %11, align 4, !tbaa !27
  br label %12

12:                                               ; preds = %0, %2
  ret ptr %1
}